target datalayout = "e-m:e-p270:32:32-p271:32:32-p272:64:64-i64:64-i128:128-f80:128-n8:16:32:64-S128"
target triple = "x86_64-pc-linux-gnu"

%struct.PgStat_LocalState = type { ptr, ptr, ptr, %struct.PgStat_Snapshot }
%struct.PgStat_Snapshot = type { i32, i64, [13 x i8], %struct.PgStat_ArchiverStats, %struct.PgStat_BgWriterStats, %struct.PgStat_CheckpointerStats, %struct.PgStat_IO, [8 x %struct.PgStat_SLRUStats], %struct.PgStat_WalStats, [129 x i8], [129 x ptr], ptr, ptr }
%struct.PgStat_ArchiverStats = type { i64, [41 x i8], i64, i64, [41 x i8], i64, i64 }
%struct.PgStat_BgWriterStats = type { i64, i64, i64, i64 }
%struct.PgStat_CheckpointerStats = type { i64, i64, i64, i64, i64, i64, i64, i64, i64, i64, i64 }
%struct.PgStat_IO = type { i64, [17 x %struct.PgStat_BktypeIO] }
%struct.PgStat_BktypeIO = type { [3 x [5 x [8 x i64]]], [3 x [5 x [8 x i64]]], [3 x [5 x [8 x i64]]] }
%struct.PgStat_SLRUStats = type { i64, i64, i64, i64, i64, i64, i64, i64 }
%struct.PgStat_WalStats = type { i64, i64, i64, i64, i64, i64, i64, i64, i64 }
%struct.PgStat_KindInfo = type { i8, i32, i32, i32, i32, i32, i32, ptr, ptr, ptr, ptr, ptr, ptr, ptr, ptr, ptr, ptr, ptr, ptr }
%struct.LWLock = type { i16, %struct.pg_atomic_uint32, %struct.proclist_head }
%struct.pg_atomic_uint32 = type { i32 }
%struct.proclist_head = type { i32, i32 }
%struct.PgStatShared_HashEntry = type { %struct.PgStat_HashKey, i8, %struct.pg_atomic_uint32, %struct.pg_atomic_uint32, i64 }
%struct.PgStat_HashKey = type { i32, i32, i64 }
%struct.PgStatShared_Common = type { i32, %struct.LWLock }
%struct.dshash_seq_status = type { ptr, i32, i32, ptr, i64, i32, i8 }

@pgStatLocal = external global %struct.PgStat_LocalState, align 8

; Function Attrs: inlinehint nounwind uwtable
define internal i64 @pgstat_get_entry_len(i32 noundef %0) #3 {
  %2 = alloca i32, align 4
  store i32 %0, ptr %2, align 4
  %3 = load i32, ptr %2, align 4
  %4 = call ptr @pgstat_get_kind_info(i32 noundef %3)
  %5 = getelementptr inbounds nuw %struct.PgStat_KindInfo, ptr %4, i32 0, i32 5
  %6 = load i32, ptr %5, align 4
  %7 = zext i32 %6 to i64
  ret i64 %7
}

; Function Attrs: inlinehint nounwind uwtable
define internal ptr @pgstat_get_entry_data(i32 noundef %0, ptr noundef %1) #3 {
  %3 = alloca i32, align 4
  %4 = alloca ptr, align 8
  %5 = alloca i64, align 8
  store i32 %0, ptr %3, align 4
  store ptr %1, ptr %4, align 8
  call void @llvm.lifetime.start.p0(i64 8, ptr %5) #10
  %6 = load i32, ptr %3, align 4
  %7 = call ptr @pgstat_get_kind_info(i32 noundef %6)
  %8 = getelementptr inbounds nuw %struct.PgStat_KindInfo, ptr %7, i32 0, i32 4
  %9 = load i32, ptr %8, align 8
  %10 = zext i32 %9 to i64
  store i64 %10, ptr %5, align 8
  %11 = load ptr, ptr %4, align 8
  %12 = load i64, ptr %5, align 8
  %13 = getelementptr inbounds nuw i8, ptr %11, i64 %12
  call void @llvm.lifetime.end.p0(i64 8, ptr %5) #10
  ret ptr %13
}

; Function Attrs: nounwind uwtable
define internal void @shared_stat_reset_contents(i32 noundef %0, ptr noundef %1, i64 noundef %2) #0 {
  %4 = alloca i32, align 4
  %5 = alloca ptr, align 8
  %6 = alloca i64, align 8
  %7 = alloca ptr, align 8
  store i32 %0, ptr %4, align 4
  store ptr %1, ptr %5, align 8
  store i64 %2, ptr %6, align 8
  call void @llvm.lifetime.start.p0(i64 8, ptr %7) #10
  %8 = load i32, ptr %4, align 4
  %9 = call ptr @pgstat_get_kind_info(i32 noundef %8)
  store ptr %9, ptr %7, align 8
  %10 = load i32, ptr %4, align 4
  %11 = load ptr, ptr %5, align 8
  %12 = call ptr @pgstat_get_entry_data(i32 noundef %10, ptr noundef %11)
  %13 = load i32, ptr %4, align 4
  %14 = call i64 @pgstat_get_entry_len(i32 noundef %13)
  call void @llvm.memset.p0.i64(ptr align 1 %12, i8 0, i64 %14, i1 false)
  %15 = load ptr, ptr %7, align 8
  %16 = getelementptr inbounds nuw %struct.PgStat_KindInfo, ptr %15, i32 0, i32 10
  %17 = load ptr, ptr %16, align 8
  %18 = icmp ne ptr %17, null
  br i1 %18, label %19, label %25

19:                                               ; preds = %3
  %20 = load ptr, ptr %7, align 8
  %21 = getelementptr inbounds nuw %struct.PgStat_KindInfo, ptr %20, i32 0, i32 10
  %22 = load ptr, ptr %21, align 8
  %23 = load ptr, ptr %5, align 8
  %24 = load i64, ptr %6, align 8
  call void %22(ptr noundef %23, i64 noundef %24)
  br label %25

25:                                               ; preds = %19, %3
  call void @llvm.lifetime.end.p0(i64 8, ptr %7) #10
  ret void
}

; Function Attrs: nounwind uwtable
define dso_local void @pgstat_reset_matching_entries(ptr noundef %0, i64 noundef %1, i64 noundef %2) #0 {
  %4 = alloca ptr, align 8
  %5 = alloca i64, align 8
  %6 = alloca i64, align 8
  %7 = alloca %struct.dshash_seq_status, align 8
  %8 = alloca ptr, align 8
  %9 = alloca ptr, align 8
  %10 = alloca i32, align 4
  store ptr %0, ptr %4, align 8
  store i64 %1, ptr %5, align 8
  store i64 %2, ptr %6, align 8
  call void @llvm.lifetime.start.p0(i64 40, ptr %7) #10
  call void @llvm.lifetime.start.p0(i64 8, ptr %8) #10
  %11 = load ptr, ptr getelementptr inbounds nuw (%struct.PgStat_LocalState, ptr @pgStatLocal, i32 0, i32 2), align 8
  call void @dshash_seq_init(ptr noundef %7, ptr noundef %11, i1 noundef zeroext false)
  br label %12

12:                                               ; preds = %46, %44, %3
  %13 = call ptr @dshash_seq_next(ptr noundef %7)
  store ptr %13, ptr %8, align 8
  %14 = icmp ne ptr %13, null
  br i1 %14, label %15, label %47

15:                                               ; preds = %12
  call void @llvm.lifetime.start.p0(i64 8, ptr %9) #10
  %16 = load ptr, ptr %8, align 8
  %17 = getelementptr inbounds nuw %struct.PgStatShared_HashEntry, ptr %16, i32 0, i32 1
  %18 = load i8, ptr %17, align 8, !range !6, !noundef !7
  %19 = trunc i8 %18 to i1
  br i1 %19, label %20, label %21

20:                                               ; preds = %15
  store i32 2, ptr %10, align 4
  br label %44, !llvm.loop !12

21:                                               ; preds = %15
  %22 = load ptr, ptr %4, align 8
  %23 = load ptr, ptr %8, align 8
  %24 = load i64, ptr %5, align 8
  %25 = call zeroext i1 %22(ptr noundef %23, i64 noundef %24)
  br i1 %25, label %27, label %26

26:                                               ; preds = %21
  store i32 2, ptr %10, align 4
  br label %44, !llvm.loop !12

27:                                               ; preds = %21
  %28 = load ptr, ptr getelementptr inbounds nuw (%struct.PgStat_LocalState, ptr @pgStatLocal, i32 0, i32 1), align 8
  %29 = load ptr, ptr %8, align 8
  %30 = getelementptr inbounds nuw %struct.PgStatShared_HashEntry, ptr %29, i32 0, i32 4
  %31 = load i64, ptr %30, align 8
  %32 = call ptr @dsa_get_address(ptr noundef %28, i64 noundef %31)
  store ptr %32, ptr %9, align 8
  %33 = load ptr, ptr %9, align 8
  %34 = getelementptr inbounds nuw %struct.PgStatShared_Common, ptr %33, i32 0, i32 1
  %35 = call zeroext i1 @LWLockAcquire(ptr noundef %34, i32 noundef 0)
  %36 = load ptr, ptr %8, align 8
  %37 = getelementptr inbounds nuw %struct.PgStatShared_HashEntry, ptr %36, i32 0, i32 0
  %38 = getelementptr inbounds nuw %struct.PgStat_HashKey, ptr %37, i32 0, i32 0
  %39 = load i32, ptr %38, align 8
  %40 = load ptr, ptr %9, align 8
  %41 = load i64, ptr %6, align 8
  call void @shared_stat_reset_contents(i32 noundef %39, ptr noundef %40, i64 noundef %41)
  %42 = load ptr, ptr %9, align 8
  %43 = getelementptr inbounds nuw %struct.PgStatShared_Common, ptr %42, i32 0, i32 1
  call void @LWLockRelease(ptr noundef %43)
  store i32 0, ptr %10, align 4
  br label %44

44:                                               ; preds = %27, %26, %20
  call void @llvm.lifetime.end.p0(i64 8, ptr %9) #10
  %45 = load i32, ptr %10, align 4
  switch i32 %45, label %48 [
    i32 0, label %46
    i32 2, label %12
  ]

46:                                               ; preds = %44
  br label %12, !llvm.loop !12

47:                                               ; preds = %12
  call void @dshash_seq_term(ptr noundef %7)
  call void @llvm.lifetime.end.p0(i64 8, ptr %8) #10
  call void @llvm.lifetime.end.p0(i64 40, ptr %7) #10
  ret void

48:                                               ; preds = %44
  unreachable
}