; Function Attrs: nounwind uwtable
define dso_local void @pgstat_reset_matching_entries(ptr noundef readonly captures(none) %0, i64 noundef %1, i64 noundef %2) local_unnamed_addr #0 {
  %4 = alloca %struct.dshash_seq_status, align 8
  call void @llvm.lifetime.start.p0(i64 40, ptr nonnull %4) #15
  %5 = load ptr, ptr getelementptr inbounds nuw (i8, ptr @pgStatLocal, i64 16), align 8
  call void @dshash_seq_init(ptr noundef nonnull %4, ptr noundef %5, i1 noundef zeroext false) #15
  %6 = call ptr @dshash_seq_next(ptr noundef nonnull %4) #15
  %.not9 = icmp eq ptr %6, null
  br i1 %.not9, label %._crit_edge, label %.lr.ph

.lr.ph:                                           ; preds = %3, %34
  %7 = phi ptr [ %35, %34 ], [ %6, %3 ]
  %8 = getelementptr inbounds nuw i8, ptr %7, i64 16
  %9 = load i8, ptr %8, align 8, !range !6, !noundef !7
  %10 = trunc nuw i8 %9 to i1
  br i1 %10, label %34, label %11, !llvm.loop !20

11:                                               ; preds = %.lr.ph
  %12 = call zeroext i1 %0(ptr noundef nonnull %7, i64 noundef %1) #15
  br i1 %12, label %13, label %34, !llvm.loop !20

13:                                               ; preds = %11
  %14 = load ptr, ptr getelementptr inbounds nuw (i8, ptr @pgStatLocal, i64 8), align 8
  %15 = getelementptr inbounds nuw i8, ptr %7, i64 32
  %16 = load i64, ptr %15, align 8
  %17 = call ptr @dsa_get_address(ptr noundef %14, i64 noundef %16) #15
  %18 = getelementptr inbounds nuw i8, ptr %17, i64 4
  %19 = call zeroext i1 @LWLockAcquire(ptr noundef nonnull %18, i32 noundef 0) #15
  %20 = load i32, ptr %7, align 8
  %21 = call ptr @pgstat_get_kind_info(i32 noundef %20) #15
  %22 = call ptr @pgstat_get_kind_info(i32 noundef %20) #15
  %23 = getelementptr inbounds nuw i8, ptr %22, i64 16
  %24 = load i32, ptr %23, align 8
  %25 = zext i32 %24 to i64
  %26 = getelementptr inbounds nuw i8, ptr %17, i64 %25
  %27 = call ptr @pgstat_get_kind_info(i32 noundef %20) #15
  %28 = getelementptr inbounds nuw i8, ptr %27, i64 20
  %29 = load i32, ptr %28, align 4
  %30 = zext i32 %29 to i64
  call void @llvm.memset.p0.i64(ptr align 1 %26, i8 0, i64 %30, i1 false)
  %31 = getelementptr inbounds nuw i8, ptr %21, i64 56
  %32 = load ptr, ptr %31, align 8
  %.not.i = icmp eq ptr %32, null
  br i1 %.not.i, label %shared_stat_reset_contents.exit, label %33

33:                                               ; preds = %13
  call void %32(ptr noundef nonnull %17, i64 noundef %2) #15
  br label %shared_stat_reset_contents.exit

shared_stat_reset_contents.exit:                  ; preds = %13, %33
  call void @LWLockRelease(ptr noundef nonnull %18) #15
  br label %34

34:                                               ; preds = %11, %.lr.ph, %shared_stat_reset_contents.exit
  %35 = call ptr @dshash_seq_next(ptr noundef nonnull %4) #15
  %.not = icmp eq ptr %35, null
  br i1 %.not, label %._crit_edge, label %.lr.ph

._crit_edge:                                      ; preds = %34, %3
  call void @dshash_seq_term(ptr noundef nonnull %4) #15
  call void @llvm.lifetime.end.p0(i64 40, ptr nonnull %4) #15
  ret void
}